target datalayout = "e-m:e-p270:32:32-p271:32:32-p272:64:64-i64:64-i128:128-f80:128-n8:16:32:64-S128"
target triple = "x86_64-pc-linux-gnu"

%struct.t_ebin = type { i32, ptr, i64, i64, ptr, i64, i64, ptr }
%struct.gmx_enxnm_t = type { ptr, ptr }

@.str = private unnamed_addr constant [3 x i8] c"eb\00", align 1
@.str.1 = private unnamed_addr constant [120 x i8] c"generated/home/dtcxzyw/WorkSpace/Projects/compilers/llvm-opt-benchmark/bench/gromacs/gromacs/src/gromacs/mdlib/ebin.cpp\00", align 1
@.str.2 = private unnamed_addr constant [16 x i8] c"eb->enm[i].name\00", align 1
@.str.3 = private unnamed_addr constant [16 x i8] c"eb->enm[i].unit\00", align 1
@.str.4 = private unnamed_addr constant [6 x i8] c"eb->e\00", align 1
@.str.5 = private unnamed_addr constant [10 x i8] c"eb->e_sim\00", align 1
@.str.6 = private unnamed_addr constant [8 x i8] c"eb->enm\00", align 1

; Function Attrs: inlinehint mustprogress uwtable
define internal void @_ZL14gmx_sfree_implI6t_ebinEvPKcS2_iPT_(ptr noundef %0, ptr noundef %1, i32 noundef %2, ptr noundef %3) #2 {
  %5 = alloca ptr, align 8
  %6 = alloca ptr, align 8
  %7 = alloca i32, align 4
  %8 = alloca ptr, align 8
  store ptr %0, ptr %5, align 8, !tbaa !9
  store ptr %1, ptr %6, align 8, !tbaa !9
  store i32 %2, ptr %7, align 4, !tbaa !11
  store ptr %3, ptr %8, align 8, !tbaa !4
  %9 = load ptr, ptr %5, align 8, !tbaa !9
  %10 = load ptr, ptr %6, align 8, !tbaa !9
  %11 = load i32, ptr %7, align 4, !tbaa !11
  %12 = load ptr, ptr %8, align 8, !tbaa !4
  call void @_Z9save_freePKcS0_iPv(ptr noundef %9, ptr noundef %10, i32 noundef %11, ptr noundef %12)
  ret void
}

; Function Attrs: inlinehint mustprogress uwtable
define internal void @_ZL14gmx_sfree_implI11gmx_enxnm_tEvPKcS2_iPT_(ptr noundef %0, ptr noundef %1, i32 noundef %2, ptr noundef %3) #2 {
  %5 = alloca ptr, align 8
  %6 = alloca ptr, align 8
  %7 = alloca i32, align 4
  %8 = alloca ptr, align 8
  store ptr %0, ptr %5, align 8, !tbaa !9
  store ptr %1, ptr %6, align 8, !tbaa !9
  store i32 %2, ptr %7, align 4, !tbaa !11
  store ptr %3, ptr %8, align 8, !tbaa !30
  %9 = load ptr, ptr %5, align 8, !tbaa !9
  %10 = load ptr, ptr %6, align 8, !tbaa !9
  %11 = load i32, ptr %7, align 4, !tbaa !11
  %12 = load ptr, ptr %8, align 8, !tbaa !30
  call void @_Z9save_freePKcS0_iPv(ptr noundef %9, ptr noundef %10, i32 noundef %11, ptr noundef %12)
  ret void
}

; Function Attrs: inlinehint mustprogress uwtable
define internal void @_ZL14gmx_sfree_implI8t_energyEvPKcS2_iPT_(ptr noundef %0, ptr noundef %1, i32 noundef %2, ptr noundef %3) #2 {
  %5 = alloca ptr, align 8
  %6 = alloca ptr, align 8
  %7 = alloca i32, align 4
  %8 = alloca ptr, align 8
  store ptr %0, ptr %5, align 8, !tbaa !9
  store ptr %1, ptr %6, align 8, !tbaa !9
  store i32 %2, ptr %7, align 4, !tbaa !11
  store ptr %3, ptr %8, align 8, !tbaa !29
  %9 = load ptr, ptr %5, align 8, !tbaa !9
  %10 = load ptr, ptr %6, align 8, !tbaa !9
  %11 = load i32, ptr %7, align 4, !tbaa !11
  %12 = load ptr, ptr %8, align 8, !tbaa !29
  call void @_Z9save_freePKcS0_iPv(ptr noundef %9, ptr noundef %10, i32 noundef %11, ptr noundef %12)
  ret void
}

; Function Attrs: inlinehint mustprogress uwtable
define internal void @_ZL14gmx_sfree_implIcEvPKcS1_iPT_(ptr noundef %0, ptr noundef %1, i32 noundef %2, ptr noundef %3) #2 {
  %5 = alloca ptr, align 8
  %6 = alloca ptr, align 8
  %7 = alloca i32, align 4
  %8 = alloca ptr, align 8
  store ptr %0, ptr %5, align 8, !tbaa !9
  store ptr %1, ptr %6, align 8, !tbaa !9
  store i32 %2, ptr %7, align 4, !tbaa !11
  store ptr %3, ptr %8, align 8, !tbaa !9
  %9 = load ptr, ptr %5, align 8, !tbaa !9
  %10 = load ptr, ptr %6, align 8, !tbaa !9
  %11 = load i32, ptr %7, align 4, !tbaa !11
  %12 = load ptr, ptr %8, align 8, !tbaa !9
  call void @_Z9save_freePKcS0_iPv(ptr noundef %9, ptr noundef %10, i32 noundef %11, ptr noundef %12)
  ret void
}

; Function Attrs: mustprogress uwtable
define void @_Z9done_ebinP6t_ebin(ptr noundef %0) #0 {
  %2 = alloca ptr, align 8
  %3 = alloca i32, align 4
  store ptr %0, ptr %2, align 8, !tbaa !4
  call void @llvm.lifetime.start.p0(i64 4, ptr %3) #14
  store i32 0, ptr %3, align 4, !tbaa !11
  br label %4

4:                                                ; preds = %28, %1
  %5 = load i32, ptr %3, align 4, !tbaa !11
  %6 = load ptr, ptr %2, align 8, !tbaa !4
  %7 = getelementptr inbounds nuw %struct.t_ebin, ptr %6, i32 0, i32 0
  %8 = load i32, ptr %7, align 8, !tbaa !18
  %9 = icmp slt i32 %5, %8
  br i1 %9, label %11, label %10

10:                                               ; preds = %4
  call void @llvm.lifetime.end.p0(i64 4, ptr %3) #14
  br label %31

11:                                               ; preds = %4
  %12 = load ptr, ptr %2, align 8, !tbaa !4
  %13 = getelementptr inbounds nuw %struct.t_ebin, ptr %12, i32 0, i32 1
  %14 = load ptr, ptr %13, align 8, !tbaa !21
  %15 = load i32, ptr %3, align 4, !tbaa !11
  %16 = sext i32 %15 to i64
  %17 = getelementptr inbounds %struct.gmx_enxnm_t, ptr %14, i64 %16
  %18 = getelementptr inbounds nuw %struct.gmx_enxnm_t, ptr %17, i32 0, i32 0
  %19 = load ptr, ptr %18, align 8, !tbaa !22
  call void @_ZL14gmx_sfree_implIcEvPKcS1_iPT_(ptr noundef @.str.2, ptr noundef @.str.1, i32 noundef 71, ptr noundef %19)
  %20 = load ptr, ptr %2, align 8, !tbaa !4
  %21 = getelementptr inbounds nuw %struct.t_ebin, ptr %20, i32 0, i32 1
  %22 = load ptr, ptr %21, align 8, !tbaa !21
  %23 = load i32, ptr %3, align 4, !tbaa !11
  %24 = sext i32 %23 to i64
  %25 = getelementptr inbounds %struct.gmx_enxnm_t, ptr %22, i64 %24
  %26 = getelementptr inbounds nuw %struct.gmx_enxnm_t, ptr %25, i32 0, i32 1
  %27 = load ptr, ptr %26, align 8, !tbaa !24
  call void @_ZL14gmx_sfree_implIcEvPKcS1_iPT_(ptr noundef @.str.3, ptr noundef @.str.1, i32 noundef 72, ptr noundef %27)
  br label %28

28:                                               ; preds = %11
  %29 = load i32, ptr %3, align 4, !tbaa !11
  %30 = add nsw i32 %29, 1
  store i32 %30, ptr %3, align 4, !tbaa !11
  br label %4, !llvm.loop !25

31:                                               ; preds = %10
  %32 = load ptr, ptr %2, align 8, !tbaa !4
  %33 = getelementptr inbounds nuw %struct.t_ebin, ptr %32, i32 0, i32 4
  %34 = load ptr, ptr %33, align 8, !tbaa !27
  call void @_ZL14gmx_sfree_implI8t_energyEvPKcS2_iPT_(ptr noundef @.str.4, ptr noundef @.str.1, i32 noundef 74, ptr noundef %34)
  %35 = load ptr, ptr %2, align 8, !tbaa !4
  %36 = getelementptr inbounds nuw %struct.t_ebin, ptr %35, i32 0, i32 7
  %37 = load ptr, ptr %36, align 8, !tbaa !28
  call void @_ZL14gmx_sfree_implI8t_energyEvPKcS2_iPT_(ptr noundef @.str.5, ptr noundef @.str.1, i32 noundef 75, ptr noundef %37)
  %38 = load ptr, ptr %2, align 8, !tbaa !4
  %39 = getelementptr inbounds nuw %struct.t_ebin, ptr %38, i32 0, i32 1
  %40 = load ptr, ptr %39, align 8, !tbaa !21
  call void @_ZL14gmx_sfree_implI11gmx_enxnm_tEvPKcS2_iPT_(ptr noundef @.str.6, ptr noundef @.str.1, i32 noundef 76, ptr noundef %40)
  %41 = load ptr, ptr %2, align 8, !tbaa !4
  call void @_ZL14gmx_sfree_implI6t_ebinEvPKcS2_iPT_(ptr noundef @.str, ptr noundef @.str.1, i32 noundef 77, ptr noundef %41)
  ret void
}