; Function Attrs: mustprogress uwtable
define void @_Z9done_ebinP6t_ebin(ptr noundef %0) local_unnamed_addr #0 {
  %2 = load i32, ptr %0, align 8, !tbaa !4
  %3 = icmp sgt i32 %2, 0
  br i1 %3, label %.lr.ph, label %._crit_edge

.lr.ph:                                           ; preds = %1
  %4 = getelementptr inbounds nuw i8, ptr %0, i64 8
  br label %11

._crit_edge:                                      ; preds = %11, %1
  %5 = getelementptr inbounds nuw i8, ptr %0, i64 32
  %6 = load ptr, ptr %5, align 8, !tbaa !12
  tail call void @_Z9save_freePKcS0_iPv(ptr noundef nonnull @.str.4, ptr noundef nonnull @.str.1, i32 noundef 74, ptr noundef %6)
  %7 = getelementptr inbounds nuw i8, ptr %0, i64 56
  %8 = load ptr, ptr %7, align 8, !tbaa !13
  tail call void @_Z9save_freePKcS0_iPv(ptr noundef nonnull @.str.5, ptr noundef nonnull @.str.1, i32 noundef 75, ptr noundef %8)
  %9 = getelementptr inbounds nuw i8, ptr %0, i64 8
  %10 = load ptr, ptr %9, align 8, !tbaa !14
  tail call void @_Z9save_freePKcS0_iPv(ptr noundef nonnull @.str.6, ptr noundef nonnull @.str.1, i32 noundef 76, ptr noundef %10)
  tail call void @_Z9save_freePKcS0_iPv(ptr noundef nonnull @.str, ptr noundef nonnull @.str.1, i32 noundef 77, ptr noundef nonnull %0)
  ret void

11:                                               ; preds = %.lr.ph, %11
  %indvars.iv = phi i64 [ 0, %.lr.ph ], [ %indvars.iv.next, %11 ]
  %12 = load ptr, ptr %4, align 8, !tbaa !14
  %13 = getelementptr inbounds nuw %struct.gmx_enxnm_t, ptr %12, i64 %indvars.iv
  %14 = load ptr, ptr %13, align 8, !tbaa !15
  tail call void @_Z9save_freePKcS0_iPv(ptr noundef nonnull @.str.2, ptr noundef nonnull @.str.1, i32 noundef 71, ptr noundef %14)
  %15 = load ptr, ptr %4, align 8, !tbaa !14
  %16 = getelementptr inbounds nuw %struct.gmx_enxnm_t, ptr %15, i64 %indvars.iv, i32 1
  %17 = load ptr, ptr %16, align 8, !tbaa !18
  tail call void @_Z9save_freePKcS0_iPv(ptr noundef nonnull @.str.3, ptr noundef nonnull @.str.1, i32 noundef 72, ptr noundef %17)
  %indvars.iv.next = add nuw nsw i64 %indvars.iv, 1
  %18 = load i32, ptr %0, align 8, !tbaa !4
  %19 = sext i32 %18 to i64
  %20 = icmp slt i64 %indvars.iv.next, %19
  br i1 %20, label %11, label %._crit_edge, !llvm.loop !19
}